target datalayout = "e-m:e-p270:32:32-p271:32:32-p272:64:64-i64:64-i128:128-f80:128-n8:16:32:64-S128"
target triple = "x86_64-unknown-linux-gnu"

%"class.v8::IndirectHandleBase" = type { ptr }
%"class.node::BaseObject" = type { %"class.node::MemoryRetainer", %"class.v8::Global", ptr, ptr }
%"class.node::MemoryRetainer" = type { ptr }
%"class.v8::Global" = type { %"class.v8::PersistentBase" }
%"class.v8::PersistentBase" = type { %"class.v8::IndirectHandleBase" }

; Function Attrs: mustprogress nounwind uwtable
define dso_local noundef zeroext i1 @_ZNK4node10BaseObject10IsRootNodeEv(ptr noundef nonnull align 8 dereferenceable(32) %this) unnamed_addr #4 align 2 {
entry:
  %obj.addr.i = alloca ptr, align 8
  %addr.i = alloca ptr, align 8
  %this.addr.i2 = alloca ptr, align 8
  %this.addr.i.i = alloca ptr, align 8
  %retval.i = alloca i1, align 1
  %this.addr.i = alloca ptr, align 8
  %this.addr = alloca ptr, align 8
  store ptr %this, ptr %this.addr, align 8
  %this1 = load ptr, ptr %this.addr, align 8
  %persistent_handle_ = getelementptr inbounds %"class.node::BaseObject", ptr %this1, i32 0, i32 1
  store ptr %persistent_handle_, ptr %this.addr.i, align 8
  %this1.i = load ptr, ptr %this.addr.i, align 8
  store ptr %this1.i, ptr %this.addr.i.i, align 8
  %this1.i.i = load ptr, ptr %this.addr.i.i, align 8
  %0 = load ptr, ptr %this1.i.i, align 8
  %cmp.i.i = icmp eq ptr %0, null
  br i1 %cmp.i.i, label %if.then.i, label %if.end.i

if.then.i:                                        ; preds = %entry
  store i1 false, ptr %retval.i, align 1
  br label %_ZNK2v814PersistentBaseINS_6ObjectEE6IsWeakEv.exit

if.end.i:                                         ; preds = %entry
  store ptr %this1.i, ptr %this.addr.i2, align 8
  %this1.i3 = load ptr, ptr %this.addr.i2, align 8
  %1 = load ptr, ptr %this1.i3, align 8
  store ptr %1, ptr %obj.addr.i, align 8
  %2 = load ptr, ptr %obj.addr.i, align 8
  %add.ptr.i = getelementptr inbounds i8, ptr %2, i64 11
  store ptr %add.ptr.i, ptr %addr.i, align 8
  %3 = load ptr, ptr %addr.i, align 8
  %4 = load i8, ptr %3, align 1
  %conv.i4 = zext i8 %4 to i32
  %and.i = and i32 %conv.i4, 3
  %conv1.i = trunc i32 %and.i to i8
  %conv.i = zext i8 %conv1.i to i32
  %cmp.i = icmp eq i32 %conv.i, 2
  store i1 %cmp.i, ptr %retval.i, align 1
  br label %_ZNK2v814PersistentBaseINS_6ObjectEE6IsWeakEv.exit

_ZNK2v814PersistentBaseINS_6ObjectEE6IsWeakEv.exit: ; preds = %if.end.i, %if.then.i
  %5 = load i1, ptr %retval.i, align 1
  %lnot = xor i1 %5, true
  ret i1 %lnot
}