; Function Attrs: mustprogress nofree norecurse nosync nounwind willreturn memory(read, inaccessiblemem: none) uwtable
define dso_local noundef zeroext i1 @_ZNK4node10BaseObject10IsRootNodeEv(ptr nocapture noundef nonnull readonly align 8 dereferenceable(32) %this) unnamed_addr #12 align 2 {
entry:
  %persistent_handle_ = getelementptr inbounds i8, ptr %this, i64 8
  %0 = load ptr, ptr %persistent_handle_, align 8
  %cmp.i.i = icmp eq ptr %0, null
  br i1 %cmp.i.i, label %_ZNK2v814PersistentBaseINS_6ObjectEE6IsWeakEv.exit, label %if.end.i

if.end.i:                                         ; preds = %entry
  %add.ptr.i = getelementptr inbounds i8, ptr %0, i64 11
  %1 = load i8, ptr %add.ptr.i, align 1
  %2 = and i8 %1, 3
  %cmp.i = icmp ne i8 %2, 2
  br label %_ZNK2v814PersistentBaseINS_6ObjectEE6IsWeakEv.exit

_ZNK2v814PersistentBaseINS_6ObjectEE6IsWeakEv.exit: ; preds = %entry, %if.end.i
  %retval.i.0 = phi i1 [ %cmp.i, %if.end.i ], [ true, %entry ]
  ret i1 %retval.i.0
}